target datalayout = "e-m:e-p270:32:32-p271:32:32-p272:64:64-i64:64-i128:128-f80:128-n8:16:32:64-S128"
target triple = "x86_64-pc-linux-gnu"

%struct.yyguts_t = type { i32, ptr, ptr, i64, i64, ptr, i8, i32, i32, ptr, i32, i32, i32, i32, i32, ptr, i32, ptr, i32, i32, ptr, i32, i32, ptr, ptr }

@.str.15 = private unnamed_addr constant [32 x i8] c"start-condition stack underflow\00", align 1

; Function Attrs: nounwind uwtable
define internal void @yy_pop_state(ptr noundef %0) #0 {
  %2 = alloca ptr, align 8
  %3 = alloca ptr, align 8
  store ptr %0, ptr %2, align 8, !tbaa !9
  call void @llvm.lifetime.start.p0(i64 8, ptr %3) #10
  %4 = load ptr, ptr %2, align 8, !tbaa !9
  store ptr %4, ptr %3, align 8, !tbaa !10
  %5 = load ptr, ptr %3, align 8, !tbaa !10
  %6 = getelementptr inbounds nuw %struct.yyguts_t, ptr %5, i32 0, i32 13
  %7 = load i32, ptr %6, align 4, !tbaa !61
  %8 = add nsw i32 %7, -1
  store i32 %8, ptr %6, align 4, !tbaa !61
  %9 = icmp slt i32 %8, 0
  br i1 %9, label %10, label %12

10:                                               ; preds = %1
  %11 = load ptr, ptr %2, align 8, !tbaa !9
  call void @yy_fatal_error(ptr noundef @.str.15, ptr noundef %11) #11
  unreachable

12:                                               ; preds = %1
  %13 = load ptr, ptr %3, align 8, !tbaa !10
  %14 = getelementptr inbounds nuw %struct.yyguts_t, ptr %13, i32 0, i32 15
  %15 = load ptr, ptr %14, align 8, !tbaa !63
  %16 = load ptr, ptr %3, align 8, !tbaa !10
  %17 = getelementptr inbounds nuw %struct.yyguts_t, ptr %16, i32 0, i32 13
  %18 = load i32, ptr %17, align 4, !tbaa !61
  %19 = sext i32 %18 to i64
  %20 = getelementptr inbounds i32, ptr %15, i64 %19
  %21 = load i32, ptr %20, align 4, !tbaa !34
  %22 = mul nsw i32 2, %21
  %23 = add nsw i32 1, %22
  %24 = load ptr, ptr %3, align 8, !tbaa !10
  %25 = getelementptr inbounds nuw %struct.yyguts_t, ptr %24, i32 0, i32 11
  store i32 %23, ptr %25, align 4, !tbaa !22
  call void @llvm.lifetime.end.p0(i64 8, ptr %3) #10
  ret void
}

; Function Attrs: nounwind uwtable
define internal i32 @try_exit(i32 noundef %0, i32 noundef %1, ptr noundef %2) #0 {
  %4 = alloca i32, align 4
  %5 = alloca i32, align 4
  %6 = alloca i32, align 4
  %7 = alloca ptr, align 8
  %8 = alloca i8, align 1
  %9 = alloca i32, align 4
  %10 = alloca i32, align 4
  store i32 %0, ptr %5, align 4, !tbaa !34
  store i32 %1, ptr %6, align 4, !tbaa !34
  store ptr %2, ptr %7, align 8, !tbaa !9
  call void @llvm.lifetime.start.p0(i64 1, ptr %8) #10
  store i8 0, ptr %8, align 1, !tbaa !33
  call void @llvm.lifetime.start.p0(i64 4, ptr %9) #10
  %11 = load i32, ptr %6, align 4, !tbaa !34
  switch i32 %11, label %16 [
    i32 1, label %12
    i32 2, label %13
    i32 3, label %14
    i32 4, label %15
  ]

12:                                               ; preds = %3
  store i32 41, ptr %9, align 4, !tbaa !34
  store i8 41, ptr %8, align 1, !tbaa !33
  br label %17

13:                                               ; preds = %3
  store i32 93, ptr %9, align 4, !tbaa !34
  store i8 93, ptr %8, align 1, !tbaa !33
  br label %17

14:                                               ; preds = %3
  store i32 125, ptr %9, align 4, !tbaa !34
  store i8 125, ptr %8, align 1, !tbaa !33
  br label %17

15:                                               ; preds = %3
  store i8 41, ptr %8, align 1, !tbaa !33
  store i32 300, ptr %9, align 4, !tbaa !34
  br label %17

16:                                               ; preds = %3
  store i32 258, ptr %4, align 4
  store i32 1, ptr %10, align 4
  br label %26

17:                                               ; preds = %15, %14, %13, %12
  %18 = load i8, ptr %8, align 1, !tbaa !33
  %19 = sext i8 %18 to i32
  %20 = load i32, ptr %5, align 4, !tbaa !34
  %21 = icmp eq i32 %19, %20
  br i1 %21, label %22, label %25

22:                                               ; preds = %17
  %23 = load ptr, ptr %7, align 8, !tbaa !9
  call void @yy_pop_state(ptr noundef %23)
  %24 = load i32, ptr %9, align 4, !tbaa !34
  store i32 %24, ptr %4, align 4
  store i32 1, ptr %10, align 4
  br label %26

25:                                               ; preds = %17
  store i32 258, ptr %4, align 4
  store i32 1, ptr %10, align 4
  br label %26

26:                                               ; preds = %25, %22, %16
  call void @llvm.lifetime.end.p0(i64 4, ptr %9) #10
  call void @llvm.lifetime.end.p0(i64 1, ptr %8) #10
  %27 = load i32, ptr %4, align 4
  ret i32 %27
}