; Function Attrs: nofree nounwind uwtable
define internal fastcc range(i32 41, 301) i32 @try_exit(i32 noundef range(i32 -128, 128) %0, i32 noundef range(i32 -1073741824, 1073741824) %1, ptr noundef captures(none) %2) unnamed_addr #3 {
  %switch.tableidx = add nsw i32 %1, -1
  %4 = icmp ult i32 %switch.tableidx, 4
  br i1 %4, label %switch.lookup, label %22

switch.lookup:                                    ; preds = %3
  %5 = zext nneg i32 %switch.tableidx to i64
  %switch.gep = getelementptr inbounds nuw [4 x i32], ptr @switch.table.try_exit, i64 0, i64 %5
  %switch.load = load i32, ptr %switch.gep, align 4
  %6 = zext nneg i32 %switch.tableidx to i64
  %switch.gep7 = getelementptr inbounds nuw [4 x i32], ptr @switch.table.try_exit.2, i64 0, i64 %6
  %switch.load8 = load i32, ptr %switch.gep7, align 4
  %7 = icmp eq i32 %switch.load, %0
  br i1 %7, label %8, label %22

8:                                                ; preds = %switch.lookup
  %9 = getelementptr inbounds nuw i8, ptr %2, i64 84
  %10 = load i32, ptr %9, align 4, !tbaa !63
  %11 = add nsw i32 %10, -1
  store i32 %11, ptr %9, align 4, !tbaa !63
  %12 = icmp slt i32 %10, 1
  br i1 %12, label %13, label %yy_pop_state.exit

13:                                               ; preds = %8
  tail call fastcc void @yy_fatal_error(ptr noundef nonnull @.str.15) #18
  unreachable

yy_pop_state.exit:                                ; preds = %8
  %14 = getelementptr inbounds nuw i8, ptr %2, i64 96
  %15 = load ptr, ptr %14, align 8, !tbaa !65
  %16 = zext nneg i32 %11 to i64
  %17 = getelementptr inbounds nuw i32, ptr %15, i64 %16
  %18 = load i32, ptr %17, align 4, !tbaa !60
  %19 = shl nsw i32 %18, 1
  %20 = or disjoint i32 %19, 1
  %21 = getelementptr inbounds nuw i8, ptr %2, i64 76
  store i32 %20, ptr %21, align 4, !tbaa !18
  br label %22

22:                                               ; preds = %3, %switch.lookup, %yy_pop_state.exit
  %.06 = phi i32 [ %switch.load8, %yy_pop_state.exit ], [ 258, %3 ], [ 258, %switch.lookup ]
  ret i32 %.06
}